; Function Attrs: mustprogress nounwind uwtable
define hidden void @_ZN16VerifyOopClosure6do_oopEPP7oopDesc(ptr nocapture nonnull readnone align 8 %0, ptr nocapture noundef readonly %1) unnamed_addr #0 align 2 {
  %3 = load ptr, ptr %1, align 8
  %4 = icmp eq ptr %3, null
  br i1 %4, label %_ZN16VerifyOopClosure11do_oop_workIP7oopDescEEvPT_.exit, label %5

5:                                                ; preds = %2
  %6 = load ptr, ptr @_ZN8Universe14_collectedHeapE, align 8
  %7 = load ptr, ptr %6, align 8
  %8 = getelementptr inbounds i8, ptr %7, i64 456
  %9 = load ptr, ptr %8, align 8
  %10 = tail call noundef zeroext i1 %9(ptr noundef nonnull align 8 dereferenceable(104) %6, ptr noundef nonnull %3) #11
  br i1 %10, label %11, label %_ZN7oopDesc14is_oop_or_nullEPS_b.exit.i

11:                                               ; preds = %5
  %12 = load volatile i64, ptr %3, align 8
  %.not.i.i.i = icmp ne i64 %12, 0
  %13 = load i32, ptr @LockingMode, align 4
  %14 = icmp eq i32 %13, 2
  %or.cond.i.i.i = select i1 %.not.i.i.i, i1 true, i1 %14
  br i1 %or.cond.i.i.i, label %_ZN16VerifyOopClosure11do_oop_workIP7oopDescEEvPT_.exit, label %15

15:                                               ; preds = %11
  %16 = load volatile i32, ptr @_ZN20SafepointSynchronize6_stateE, align 4
  %.not.i = icmp eq i32 %16, 2
  br i1 %.not.i, label %_ZN7oopDesc14is_oop_or_nullEPS_b.exit.i, label %_ZN16VerifyOopClosure11do_oop_workIP7oopDescEEvPT_.exit

_ZN7oopDesc14is_oop_or_nullEPS_b.exit.i:          ; preds = %15, %5
  %17 = load ptr, ptr @g_assert_poison, align 8
  store i8 88, ptr %17, align 1
  %18 = ptrtoint ptr %3 to i64
  tail call void (ptr, i32, ptr, ptr, ...) @_Z15report_vm_errorPKciS0_S0_z(ptr noundef nonnull @.str.12, i32 noundef 141, ptr noundef nonnull @.str.13, ptr noundef nonnull @.str.14, i64 noundef %18) #12
  unreachable

_ZN16VerifyOopClosure11do_oop_workIP7oopDescEEvPT_.exit: ; preds = %2, %11, %15
  ret void
}